target datalayout = "e-m:e-p270:32:32-p271:32:32-p272:64:64-i64:64-i128:128-f80:128-n8:16:32:64-S128"
target triple = "x86_64-pc-linux-gnu"

%"class.datalog::dl_decl_util" = type <{ ptr, %class.scoped_ptr, %class.scoped_ptr.45, i32, [4 x i8] }>
%class.scoped_ptr = type { ptr }
%class.scoped_ptr.45 = type { ptr }

; Function Attrs: mustprogress uwtable
define linkonce_odr hidden void @_Z7deallocI7bv_utilEvPT_(ptr noundef %0) #4 comdat {
  %2 = alloca ptr, align 8
  store ptr %0, ptr %2, align 8, !tbaa !197
  %3 = load ptr, ptr %2, align 8, !tbaa !197
  %4 = icmp eq ptr %3, null
  br i1 %4, label %5, label %6

5:                                                ; preds = %1
  br label %8

6:                                                ; preds = %1
  %7 = load ptr, ptr %2, align 8, !tbaa !197
  call void @_ZN6memory10deallocateEPv(ptr noundef %7)
  br label %8

8:                                                ; preds = %6, %5
  ret void
}

; Function Attrs: mustprogress nounwind uwtable
define linkonce_odr hidden noundef nonnull align 8 dereferenceable(24) ptr @_ZN10scoped_ptrI7bv_utilEdeEv(ptr noundef nonnull align 8 dereferenceable(8) %0) #9 comdat align 2 {
  %2 = alloca ptr, align 8
  store ptr %0, ptr %2, align 8, !tbaa !195
  %3 = load ptr, ptr %2, align 8
  %4 = getelementptr inbounds nuw %class.scoped_ptr.45, ptr %3, i32 0, i32 0
  %5 = load ptr, ptr %4, align 8, !tbaa !198
  ret ptr %5
}

; Function Attrs: mustprogress uwtable
define linkonce_odr hidden noundef nonnull align 8 dereferenceable(8) ptr @_ZN10scoped_ptrI7bv_utilEaSEPS0_(ptr noundef nonnull align 8 dereferenceable(8) %0, ptr noundef %1) #4 comdat align 2 {
  %3 = alloca ptr, align 8
  %4 = alloca ptr, align 8
  store ptr %0, ptr %3, align 8, !tbaa !195
  store ptr %1, ptr %4, align 8, !tbaa !197
  %5 = load ptr, ptr %3, align 8
  %6 = getelementptr inbounds nuw %class.scoped_ptr.45, ptr %5, i32 0, i32 0
  %7 = load ptr, ptr %6, align 8, !tbaa !198
  %8 = load ptr, ptr %4, align 8, !tbaa !197
  %9 = icmp ne ptr %7, %8
  br i1 %9, label %10, label %15

10:                                               ; preds = %2
  %11 = getelementptr inbounds nuw %class.scoped_ptr.45, ptr %5, i32 0, i32 0
  %12 = load ptr, ptr %11, align 8, !tbaa !198
  call void @_Z7deallocI7bv_utilEvPT_(ptr noundef %12)
  %13 = load ptr, ptr %4, align 8, !tbaa !197
  %14 = getelementptr inbounds nuw %class.scoped_ptr.45, ptr %5, i32 0, i32 0
  store ptr %13, ptr %14, align 8, !tbaa !198
  br label %15

15:                                               ; preds = %10, %2
  ret ptr %5
}

; Function Attrs: mustprogress nounwind uwtable
define linkonce_odr hidden noundef zeroext i1 @_ZNK10scoped_ptrI7bv_utilEcvbEv(ptr noundef nonnull align 8 dereferenceable(8) %0) #9 comdat align 2 {
  %2 = alloca ptr, align 8
  store ptr %0, ptr %2, align 8, !tbaa !195
  %3 = load ptr, ptr %2, align 8
  %4 = getelementptr inbounds nuw %class.scoped_ptr.45, ptr %3, i32 0, i32 0
  %5 = load ptr, ptr %4, align 8, !tbaa !198
  %6 = icmp ne ptr %5, null
  ret i1 %6
}

; Function Attrs: mustprogress uwtable
define hidden noundef nonnull align 8 dereferenceable(24) ptr @_ZNK7datalog12dl_decl_util2bvEv(ptr noundef nonnull align 8 dereferenceable(28) %0) #4 align 2 {
  %2 = alloca ptr, align 8
  store ptr %0, ptr %2, align 8, !tbaa !183
  %3 = load ptr, ptr %2, align 8
  %4 = getelementptr inbounds nuw %"class.datalog::dl_decl_util", ptr %3, i32 0, i32 2
  %5 = call noundef zeroext i1 @_ZNK10scoped_ptrI7bv_utilEcvbEv(ptr noundef nonnull align 8 dereferenceable(8) %4)
  br i1 %5, label %12, label %6

6:                                                ; preds = %1
  %7 = call noalias noundef ptr @_ZN6memory8allocateEm(i64 noundef 24)
  %8 = getelementptr inbounds nuw %"class.datalog::dl_decl_util", ptr %3, i32 0, i32 0
  %9 = load ptr, ptr %8, align 8, !tbaa !199
  call void @_ZN7bv_utilC1ER11ast_manager(ptr noundef nonnull align 8 dereferenceable(24) %7, ptr noundef nonnull align 8 dereferenceable(976) %9)
  %10 = getelementptr inbounds nuw %"class.datalog::dl_decl_util", ptr %3, i32 0, i32 2
  %11 = call noundef nonnull align 8 dereferenceable(8) ptr @_ZN10scoped_ptrI7bv_utilEaSEPS0_(ptr noundef nonnull align 8 dereferenceable(8) %10, ptr noundef %7)
  br label %12

12:                                               ; preds = %6, %1
  %13 = getelementptr inbounds nuw %"class.datalog::dl_decl_util", ptr %3, i32 0, i32 2
  %14 = call noundef nonnull align 8 dereferenceable(24) ptr @_ZN10scoped_ptrI7bv_utilEdeEv(ptr noundef nonnull align 8 dereferenceable(8) %13)
  ret ptr %14
}